target datalayout = "e-m:e-p270:32:32-p271:32:32-p272:64:64-i64:64-i128:128-f80:128-n8:16:32:64-S128"
target triple = "x86_64-pc-linux-gnu"

@.str.974 = private unnamed_addr constant [17 x i8] c"S7 Communication\00", align 1
@.str.975 = private unnamed_addr constant [7 x i8] c"S7COMM\00", align 1
@.str.976 = private unnamed_addr constant [7 x i8] c"s7comm\00", align 1
@proto_s7comm = internal global i32 0, align 4
@.str.977 = private unnamed_addr constant [13 x i8] c"s7comm-bsend\00", align 1
@.str.978 = private unnamed_addr constant [19 x i8] c"S7COMM BSEND/BRECV\00", align 1
@s7comm_heur_subdissector_list = internal global ptr null, align 8

; Function Attrs: null_pointer_is_valid sspstrong uwtable
define hidden void @proto_register_s7comm() #0 {
  %1 = alloca ptr, align 8
  call void @llvm.lifetime.start.p0(i64 8, ptr %1) #8
  %2 = call i32 @proto_register_protocol(ptr noundef @.str.974, ptr noundef @.str.975, ptr noundef @.str.976)
  store i32 %2, ptr @proto_s7comm, align 4
  %3 = load i32, ptr @proto_s7comm, align 4
  call void @proto_register_field_array(i32 noundef %3, ptr noundef @proto_register_s7comm.hf, i32 noundef 441)
  %4 = load i32, ptr @proto_s7comm, align 4
  call void @s7comm_register_szl_types(i32 noundef %4)
  call void @proto_register_subtree_array(ptr noundef @proto_register_s7comm.ett, i32 noundef 25)
  %5 = load i32, ptr @proto_s7comm, align 4
  %6 = call ptr @expert_register_protocol(i32 noundef %5)
  store ptr %6, ptr %1, align 8
  %7 = load ptr, ptr %1, align 8
  call void @expert_register_field_array(ptr noundef %7, ptr noundef @proto_register_s7comm.ei, i32 noundef 2)
  call void @register_init_routine(ptr noundef @s7comm_defragment_init)
  %8 = load i32, ptr @proto_s7comm, align 4
  %9 = call ptr @register_heur_dissector_list_with_description(ptr noundef @.str.977, ptr noundef @.str.978, i32 noundef %8)
  store ptr %9, ptr @s7comm_heur_subdissector_list, align 8
  call void @llvm.lifetime.end.p0(i64 8, ptr %1) #8
  ret void
}