; Function Attrs: null_pointer_is_valid sspstrong uwtable
define hidden void @proto_register_s7comm() local_unnamed_addr #0 {
  %1 = tail call i32 @proto_register_protocol(ptr noundef nonnull @.str.974, ptr noundef nonnull @.str.975, ptr noundef nonnull @.str.976)
  store i32 %1, ptr @proto_s7comm, align 4
  tail call void @proto_register_field_array(i32 noundef %1, ptr noundef nonnull @proto_register_s7comm.hf, i32 noundef 441)
  %2 = load i32, ptr @proto_s7comm, align 4
  tail call void @s7comm_register_szl_types(i32 noundef %2)
  tail call void @proto_register_subtree_array(ptr noundef nonnull @proto_register_s7comm.ett, i32 noundef 25)
  %3 = load i32, ptr @proto_s7comm, align 4
  %4 = tail call ptr @expert_register_protocol(i32 noundef %3)
  tail call void @expert_register_field_array(ptr noundef %4, ptr noundef nonnull @proto_register_s7comm.ei, i32 noundef 2)
  tail call void @register_init_routine(ptr noundef nonnull @s7comm_defragment_init)
  %5 = load i32, ptr @proto_s7comm, align 4
  %6 = tail call ptr @register_heur_dissector_list_with_description(ptr noundef nonnull @.str.977, ptr noundef nonnull @.str.978, i32 noundef %5)
  store ptr %6, ptr @s7comm_heur_subdissector_list, align 8
  ret void
}